target datalayout = "e-m:e-p270:32:32-p271:32:32-p272:64:64-i64:64-i128:128-f80:128-n8:16:32:64-S128"
target triple = "x86_64-pc-linux-gnu"

%struct.SDL_AtomicInt = type { i32 }
%struct.SDL_AudioSpec = type { i32, i32, i32 }
%struct.SDL_AudioDevice = type { ptr, ptr, %struct.SDL_AtomicInt, ptr, ptr, ptr, ptr, ptr, ptr, ptr, i32, ptr, %struct.SDL_AudioSpec, i32, ptr, %struct.SDL_AudioSpec, i32, i32, %struct.SDL_AtomicInt, %struct.SDL_AtomicInt, i8, i8, ptr, ptr, ptr, i32, ptr, i8, ptr, ptr }

; Function Attrs: nounwind uwtable
define hidden i32 @SDL_GetSilenceValueForFormat_REAL(i32 noundef %0) #0 {
  %2 = alloca i32, align 4
  store i32 %0, ptr %2, align 4
  %3 = load i32, ptr %2, align 4
  %4 = icmp eq i32 %3, 8
  %5 = select i1 %4, i32 128, i32 0
  ret i32 %5
}

; Function Attrs: nounwind uwtable
define hidden void @SDL_UpdatedAudioDeviceFormat(ptr noundef %0) #0 {
  %2 = alloca ptr, align 8
  store ptr %0, ptr %2, align 8
  %3 = load ptr, ptr %2, align 8
  %4 = getelementptr inbounds nuw %struct.SDL_AudioDevice, ptr %3, i32 0, i32 12
  %5 = getelementptr inbounds nuw %struct.SDL_AudioSpec, ptr %4, i32 0, i32 0
  %6 = load i32, ptr %5, align 8
  %7 = call i32 @SDL_GetSilenceValueForFormat_REAL(i32 noundef %6)
  %8 = load ptr, ptr %2, align 8
  %9 = getelementptr inbounds nuw %struct.SDL_AudioDevice, ptr %8, i32 0, i32 17
  store i32 %7, ptr %9, align 8
  %10 = load ptr, ptr %2, align 8
  %11 = getelementptr inbounds nuw %struct.SDL_AudioDevice, ptr %10, i32 0, i32 16
  %12 = load i32, ptr %11, align 4
  %13 = load ptr, ptr %2, align 8
  %14 = getelementptr inbounds nuw %struct.SDL_AudioDevice, ptr %13, i32 0, i32 12
  %15 = getelementptr inbounds nuw %struct.SDL_AudioSpec, ptr %14, i32 0, i32 0
  %16 = load i32, ptr %15, align 8
  %17 = and i32 %16, 255
  %18 = udiv i32 %17, 8
  %19 = load ptr, ptr %2, align 8
  %20 = getelementptr inbounds nuw %struct.SDL_AudioDevice, ptr %19, i32 0, i32 12
  %21 = getelementptr inbounds nuw %struct.SDL_AudioSpec, ptr %20, i32 0, i32 1
  %22 = load i32, ptr %21, align 4
  %23 = mul i32 %18, %22
  %24 = mul i32 %12, %23
  %25 = load ptr, ptr %2, align 8
  %26 = getelementptr inbounds nuw %struct.SDL_AudioDevice, ptr %25, i32 0, i32 13
  store i32 %24, ptr %26, align 4
  %27 = load ptr, ptr %2, align 8
  %28 = getelementptr inbounds nuw %struct.SDL_AudioDevice, ptr %27, i32 0, i32 16
  %29 = load i32, ptr %28, align 4
  %30 = sext i32 %29 to i64
  %31 = mul i64 %30, 4
  %32 = load ptr, ptr %2, align 8
  %33 = getelementptr inbounds nuw %struct.SDL_AudioDevice, ptr %32, i32 0, i32 12
  %34 = getelementptr inbounds nuw %struct.SDL_AudioSpec, ptr %33, i32 0, i32 1
  %35 = load i32, ptr %34, align 4
  %36 = sext i32 %35 to i64
  %37 = mul i64 %31, %36
  %38 = trunc i64 %37 to i32
  %39 = load ptr, ptr %2, align 8
  %40 = getelementptr inbounds nuw %struct.SDL_AudioDevice, ptr %39, i32 0, i32 25
  store i32 %38, ptr %40, align 8
  %41 = load ptr, ptr %2, align 8
  %42 = getelementptr inbounds nuw %struct.SDL_AudioDevice, ptr %41, i32 0, i32 13
  %43 = load i32, ptr %42, align 4
  %44 = load ptr, ptr %2, align 8
  %45 = getelementptr inbounds nuw %struct.SDL_AudioDevice, ptr %44, i32 0, i32 25
  %46 = load i32, ptr %45, align 8
  %47 = icmp sgt i32 %43, %46
  br i1 %47, label %48, label %52

48:                                               ; preds = %1
  %49 = load ptr, ptr %2, align 8
  %50 = getelementptr inbounds nuw %struct.SDL_AudioDevice, ptr %49, i32 0, i32 13
  %51 = load i32, ptr %50, align 4
  br label %56

52:                                               ; preds = %1
  %53 = load ptr, ptr %2, align 8
  %54 = getelementptr inbounds nuw %struct.SDL_AudioDevice, ptr %53, i32 0, i32 25
  %55 = load i32, ptr %54, align 8
  br label %56

56:                                               ; preds = %52, %48
  %57 = phi i32 [ %51, %48 ], [ %55, %52 ]
  %58 = load ptr, ptr %2, align 8
  %59 = getelementptr inbounds nuw %struct.SDL_AudioDevice, ptr %58, i32 0, i32 25
  store i32 %57, ptr %59, align 8
  ret void
}