; Function Attrs: mustprogress nofree norecurse nosync nounwind willreturn memory(argmem: readwrite) uwtable
define hidden void @SDL_UpdatedAudioDeviceFormat(ptr noundef captures(none) initializes((108, 112), (136, 140), (176, 180)) %0) local_unnamed_addr #8 {
  %2 = getelementptr inbounds nuw i8, ptr %0, i64 96
  %3 = load i32, ptr %2, align 8
  %4 = icmp eq i32 %3, 8
  %5 = select i1 %4, i32 128, i32 0
  %6 = getelementptr inbounds nuw i8, ptr %0, i64 136
  store i32 %5, ptr %6, align 8
  %7 = getelementptr inbounds nuw i8, ptr %0, i64 132
  %8 = load i32, ptr %7, align 4
  %9 = lshr i32 %3, 3
  %10 = and i32 %9, 31
  %11 = getelementptr inbounds nuw i8, ptr %0, i64 100
  %12 = load i32, ptr %11, align 4
  %13 = mul i32 %8, %10
  %14 = mul i32 %13, %12
  %15 = getelementptr inbounds nuw i8, ptr %0, i64 108
  store i32 %14, ptr %15, align 4
  %16 = shl i32 %8, 2
  %17 = mul i32 %16, %12
  %18 = getelementptr inbounds nuw i8, ptr %0, i64 176
  %. = tail call i32 @llvm.smax.i32(i32 %14, i32 %17)
  store i32 %., ptr %18, align 8
  ret void
}